target datalayout = "e-m:e-p270:32:32-p271:32:32-p272:64:64-i64:64-i128:128-f80:128-n8:16:32:64-S128"
target triple = "x86_64-pc-linux-gnu"

%struct.lua_TValue = type { %union.Value, [1 x i32], i32 }
%union.Value = type { ptr }
%struct.lua_State = type { i8, i8, i8, i8, i8, i8, i8, ptr, ptr, ptr, ptr, ptr, ptr, ptr, ptr, i32, i32, i16, i16, i32, ptr, ptr, ptr, ptr, ptr }
%struct.global_State = type { %struct.stringtable, ptr, ptr, i8, i8, ptr, ptr, ptr, i64, i64, i32, i32, i32, [40 x ptr], [40 x ptr], ptr, ptr, ptr, [256 x i64], ptr, %struct.UpVal, [11 x ptr], [11 x ptr], [21 x ptr], %struct.lua_TValue, %struct.lua_TValue, i32, ptr, i64, [4 x i64], %struct.lua_Callbacks, %struct.lua_ExecutionCallbacks, [128 x ptr], [128 x ptr], [128 x ptr], %struct.GCStats }
%struct.stringtable = type { ptr, i32, i32 }
%struct.UpVal = type { i8, i8, i8, i8, ptr, %union.anon }
%union.anon = type { %struct.anon }
%struct.anon = type { ptr, ptr, ptr }
%struct.lua_Callbacks = type { ptr, ptr, ptr, ptr, ptr, ptr, ptr, ptr, ptr, ptr }
%struct.lua_ExecutionCallbacks = type { ptr, ptr, ptr, ptr, ptr, ptr, ptr }
%struct.GCStats = type { [32 x i32], i32, i32, i64, i64, i64, double, double, double }

@.str = private unnamed_addr constant [14 x i8] c"{\22objects\22:{\0A\00", align 1
@.str.1 = private unnamed_addr constant [42 x i8] c"\220\22:{\22type\22:\22userdata\22,\22cat\22:0,\22size\22:0}\0A\00", align 1
@.str.2 = private unnamed_addr constant [13 x i8] c"},\22roots\22:{\0A\00", align 1
@.str.3 = private unnamed_addr constant [14 x i8] c"\22mainthread\22:\00", align 1
@.str.4 = private unnamed_addr constant [13 x i8] c",\22registry\22:\00", align 1
@.str.5 = private unnamed_addr constant [13 x i8] c"},\22stats\22:{\0A\00", align 1
@.str.6 = private unnamed_addr constant [12 x i8] c"\22size\22:%d,\0A\00", align 1
@.str.7 = private unnamed_addr constant [16 x i8] c"\22categories\22:{\0A\00", align 1
@.str.8 = private unnamed_addr constant [32 x i8] c"\22%d\22:{\22name\22:\22%s\22, \22size\22:%d},\0A\00", align 1
@.str.9 = private unnamed_addr constant [19 x i8] c"\22%d\22:{\22size\22:%d},\0A\00", align 1
@.str.10 = private unnamed_addr constant [11 x i8] c"\22none\22:{}\0A\00", align 1
@.str.11 = private unnamed_addr constant [3 x i8] c"}\0A\00", align 1
@.str.12 = private unnamed_addr constant [4 x i8] c"}}\0A\00", align 1
@.str.47 = private unnamed_addr constant [5 x i8] c"\22%p\22\00", align 1

; Function Attrs: mustprogress nounwind uwtable
define internal void @_ZL7dumprefP8_IO_FILEP8GCObject(ptr noundef %0, ptr noundef %1) #2 {
  %3 = alloca ptr, align 8
  %4 = alloca ptr, align 8
  store ptr %0, ptr %3, align 8, !tbaa !63
  store ptr %1, ptr %4, align 8, !tbaa !46
  %5 = load ptr, ptr %3, align 8, !tbaa !63
  %6 = load ptr, ptr %4, align 8, !tbaa !46
  %7 = call i32 (ptr, ptr, ...) @fprintf(ptr noundef %5, ptr noundef @.str.47, ptr noundef %6) #9
  ret void
}

; Function Attrs: mustprogress uwtable
define hidden void @_Z9luaC_dumpP9lua_StatePvPFPKcS0_hE(ptr noundef %0, ptr noundef %1, ptr noundef %2) #0 {
  %4 = alloca ptr, align 8
  %5 = alloca ptr, align 8
  %6 = alloca ptr, align 8
  %7 = alloca ptr, align 8
  %8 = alloca ptr, align 8
  %9 = alloca i32, align 4
  %10 = alloca i64, align 8
  store ptr %0, ptr %4, align 8, !tbaa !4
  store ptr %1, ptr %5, align 8, !tbaa !61
  store ptr %2, ptr %6, align 8, !tbaa !61
  call void @llvm.lifetime.start.p0(i64 8, ptr %7) #9
  %11 = load ptr, ptr %4, align 8, !tbaa !4
  %12 = getelementptr inbounds nuw %struct.lua_State, ptr %11, i32 0, i32 9
  %13 = load ptr, ptr %12, align 8, !tbaa !9
  store ptr %13, ptr %7, align 8, !tbaa !21
  call void @llvm.lifetime.start.p0(i64 8, ptr %8) #9
  %14 = load ptr, ptr %5, align 8, !tbaa !61
  store ptr %14, ptr %8, align 8, !tbaa !63
  %15 = load ptr, ptr %8, align 8, !tbaa !63
  %16 = call i32 (ptr, ptr, ...) @fprintf(ptr noundef %15, ptr noundef @.str) #9
  %17 = load ptr, ptr %8, align 8, !tbaa !63
  %18 = load ptr, ptr %7, align 8, !tbaa !21
  %19 = getelementptr inbounds nuw %struct.global_State, ptr %18, i32 0, i32 19
  %20 = load ptr, ptr %19, align 8, !tbaa !42
  %21 = getelementptr inbounds %struct.lua_State, ptr %20, i64 0
  %22 = call noundef zeroext i1 @_ZL7dumpgcoPvP8lua_PageP8GCObject(ptr noundef %17, ptr noundef null, ptr noundef %21)
  %23 = load ptr, ptr %4, align 8, !tbaa !4
  %24 = load ptr, ptr %8, align 8, !tbaa !63
  call void @_Z13luaM_visitgcoP9lua_StatePvPFbS1_P8lua_PageP8GCObjectE(ptr noundef %23, ptr noundef %24, ptr noundef @_ZL7dumpgcoPvP8lua_PageP8GCObject)
  %25 = load ptr, ptr %8, align 8, !tbaa !63
  %26 = call i32 (ptr, ptr, ...) @fprintf(ptr noundef %25, ptr noundef @.str.1) #9
  %27 = load ptr, ptr %8, align 8, !tbaa !63
  %28 = call i32 (ptr, ptr, ...) @fprintf(ptr noundef %27, ptr noundef @.str.2) #9
  %29 = load ptr, ptr %8, align 8, !tbaa !63
  %30 = call i32 (ptr, ptr, ...) @fprintf(ptr noundef %29, ptr noundef @.str.3) #9
  %31 = load ptr, ptr %8, align 8, !tbaa !63
  %32 = load ptr, ptr %7, align 8, !tbaa !21
  %33 = getelementptr inbounds nuw %struct.global_State, ptr %32, i32 0, i32 19
  %34 = load ptr, ptr %33, align 8, !tbaa !42
  %35 = getelementptr inbounds %struct.lua_State, ptr %34, i64 0
  call void @_ZL7dumprefP8_IO_FILEP8GCObject(ptr noundef %31, ptr noundef %35)
  %36 = load ptr, ptr %8, align 8, !tbaa !63
  %37 = call i32 (ptr, ptr, ...) @fprintf(ptr noundef %36, ptr noundef @.str.4) #9
  %38 = load ptr, ptr %8, align 8, !tbaa !63
  %39 = load ptr, ptr %7, align 8, !tbaa !21
  %40 = getelementptr inbounds nuw %struct.global_State, ptr %39, i32 0, i32 25
  %41 = getelementptr inbounds nuw %struct.lua_TValue, ptr %40, i32 0, i32 0
  %42 = load ptr, ptr %41, align 8, !tbaa !43
  call void @_ZL7dumprefP8_IO_FILEP8GCObject(ptr noundef %38, ptr noundef %42)
  %43 = load ptr, ptr %8, align 8, !tbaa !63
  %44 = call i32 (ptr, ptr, ...) @fprintf(ptr noundef %43, ptr noundef @.str.5) #9
  %45 = load ptr, ptr %8, align 8, !tbaa !63
  %46 = load ptr, ptr %7, align 8, !tbaa !21
  %47 = getelementptr inbounds nuw %struct.global_State, ptr %46, i32 0, i32 9
  %48 = load i64, ptr %47, align 8, !tbaa !65
  %49 = trunc i64 %48 to i32
  %50 = call i32 (ptr, ptr, ...) @fprintf(ptr noundef %45, ptr noundef @.str.6, i32 noundef %49) #9
  %51 = load ptr, ptr %8, align 8, !tbaa !63
  %52 = call i32 (ptr, ptr, ...) @fprintf(ptr noundef %51, ptr noundef @.str.7) #9
  call void @llvm.lifetime.start.p0(i64 4, ptr %9) #9
  store i32 0, ptr %9, align 4, !tbaa !22
  br label %53

53:                                               ; preds = %88, %3
  %54 = load i32, ptr %9, align 4, !tbaa !22
  %55 = icmp slt i32 %54, 256
  br i1 %55, label %57, label %56

56:                                               ; preds = %53
  call void @llvm.lifetime.end.p0(i64 4, ptr %9) #9
  br label %91

57:                                               ; preds = %53
  call void @llvm.lifetime.start.p0(i64 8, ptr %10) #9
  %58 = load ptr, ptr %7, align 8, !tbaa !21
  %59 = getelementptr inbounds nuw %struct.global_State, ptr %58, i32 0, i32 18
  %60 = load i32, ptr %9, align 4, !tbaa !22
  %61 = sext i32 %60 to i64
  %62 = getelementptr inbounds [256 x i64], ptr %59, i64 0, i64 %61
  %63 = load i64, ptr %62, align 8, !tbaa !66
  store i64 %63, ptr %10, align 8, !tbaa !66
  %64 = load i64, ptr %10, align 8, !tbaa !66
  %65 = icmp ne i64 %64, 0
  br i1 %65, label %66, label %87

66:                                               ; preds = %57
  %67 = load ptr, ptr %6, align 8, !tbaa !61
  %68 = icmp ne ptr %67, null
  br i1 %68, label %69, label %80

69:                                               ; preds = %66
  %70 = load ptr, ptr %8, align 8, !tbaa !63
  %71 = load i32, ptr %9, align 4, !tbaa !22
  %72 = load ptr, ptr %6, align 8, !tbaa !61
  %73 = load ptr, ptr %4, align 8, !tbaa !4
  %74 = load i32, ptr %9, align 4, !tbaa !22
  %75 = trunc i32 %74 to i8
  %76 = call noundef ptr %72(ptr noundef %73, i8 noundef zeroext %75)
  %77 = load i64, ptr %10, align 8, !tbaa !66
  %78 = trunc i64 %77 to i32
  %79 = call i32 (ptr, ptr, ...) @fprintf(ptr noundef %70, ptr noundef @.str.8, i32 noundef %71, ptr noundef %76, i32 noundef %78) #9
  br label %86

80:                                               ; preds = %66
  %81 = load ptr, ptr %8, align 8, !tbaa !63
  %82 = load i32, ptr %9, align 4, !tbaa !22
  %83 = load i64, ptr %10, align 8, !tbaa !66
  %84 = trunc i64 %83 to i32
  %85 = call i32 (ptr, ptr, ...) @fprintf(ptr noundef %81, ptr noundef @.str.9, i32 noundef %82, i32 noundef %84) #9
  br label %86

86:                                               ; preds = %80, %69
  br label %87

87:                                               ; preds = %86, %57
  call void @llvm.lifetime.end.p0(i64 8, ptr %10) #9
  br label %88

88:                                               ; preds = %87
  %89 = load i32, ptr %9, align 4, !tbaa !22
  %90 = add nsw i32 %89, 1
  store i32 %90, ptr %9, align 4, !tbaa !22
  br label %53, !llvm.loop !67

91:                                               ; preds = %56
  %92 = load ptr, ptr %8, align 8, !tbaa !63
  %93 = call i32 (ptr, ptr, ...) @fprintf(ptr noundef %92, ptr noundef @.str.10) #9
  %94 = load ptr, ptr %8, align 8, !tbaa !63
  %95 = call i32 (ptr, ptr, ...) @fprintf(ptr noundef %94, ptr noundef @.str.11) #9
  %96 = load ptr, ptr %8, align 8, !tbaa !63
  %97 = call i32 (ptr, ptr, ...) @fprintf(ptr noundef %96, ptr noundef @.str.12) #9
  call void @llvm.lifetime.end.p0(i64 8, ptr %8) #9
  call void @llvm.lifetime.end.p0(i64 8, ptr %7) #9
  ret void
}