; Function Attrs: mustprogress uwtable
define hidden void @_Z9luaC_dumpP9lua_StatePvPFPKcS0_hE(ptr noundef %0, ptr noundef %1, ptr noundef readonly %2) local_unnamed_addr #0 {
  %4 = getelementptr inbounds nuw i8, ptr %0, i64 24
  %5 = load ptr, ptr %4, align 8, !tbaa !4
  %6 = tail call i64 @fwrite(ptr nonnull @.str, i64 13, i64 1, ptr %1)
  %7 = getelementptr inbounds nuw i8, ptr %5, i64 2808
  %8 = load ptr, ptr %7, align 8, !tbaa !19
  %9 = tail call noundef zeroext i1 @_ZL7dumpgcoPvP8lua_PageP8GCObject(ptr noundef %1, ptr poison, ptr noundef %8)
  tail call void @_Z13luaM_visitgcoP9lua_StatePvPFbS1_P8lua_PageP8GCObjectE(ptr noundef %0, ptr noundef %1, ptr noundef nonnull @_ZL7dumpgcoPvP8lua_PageP8GCObject)
  %10 = tail call i64 @fwrite(ptr nonnull @.str.1, i64 41, i64 1, ptr %1)
  %11 = tail call i64 @fwrite(ptr nonnull @.str.2, i64 12, i64 1, ptr %1)
  %12 = tail call i64 @fwrite(ptr nonnull @.str.3, i64 13, i64 1, ptr %1)
  %13 = load ptr, ptr %7, align 8, !tbaa !19
  %14 = tail call i32 (ptr, ptr, ...) @fprintf(ptr noundef %1, ptr noundef nonnull @.str.47, ptr noundef %13) #8
  %15 = tail call i64 @fwrite(ptr nonnull @.str.4, i64 12, i64 1, ptr %1)
  %16 = getelementptr inbounds nuw i8, ptr %5, i64 3216
  %17 = load ptr, ptr %16, align 8, !tbaa !34
  %18 = tail call i32 (ptr, ptr, ...) @fprintf(ptr noundef %1, ptr noundef nonnull @.str.47, ptr noundef %17) #8
  %19 = tail call i64 @fwrite(ptr nonnull @.str.5, i64 12, i64 1, ptr %1)
  %20 = getelementptr inbounds nuw i8, ptr %5, i64 72
  %21 = load i64, ptr %20, align 8, !tbaa !35
  %22 = trunc i64 %21 to i32
  %23 = tail call i32 (ptr, ptr, ...) @fprintf(ptr noundef %1, ptr noundef nonnull @.str.6, i32 noundef %22) #8
  %24 = tail call i64 @fwrite(ptr nonnull @.str.7, i64 15, i64 1, ptr %1)
  %25 = getelementptr inbounds nuw i8, ptr %5, i64 760
  %.not38 = icmp eq ptr %2, null
  br i1 %.not38, label %.split.us, label %.split

.split.us:                                        ; preds = %3, %32
  %indvars.iv44 = phi i64 [ %indvars.iv.next45, %32 ], [ 0, %3 ]
  %26 = getelementptr inbounds nuw [256 x i64], ptr %25, i64 0, i64 %indvars.iv44
  %27 = load i64, ptr %26, align 8, !tbaa !36
  %.not.us = icmp eq i64 %27, 0
  br i1 %.not.us, label %32, label %28

28:                                               ; preds = %.split.us
  %29 = trunc i64 %27 to i32
  %30 = trunc nuw nsw i64 %indvars.iv44 to i32
  %31 = tail call i32 (ptr, ptr, ...) @fprintf(ptr noundef %1, ptr noundef nonnull @.str.9, i32 noundef %30, i32 noundef %29) #8
  br label %32

32:                                               ; preds = %28, %.split.us
  %indvars.iv.next45 = add nuw nsw i64 %indvars.iv44, 1
  %exitcond47.not = icmp eq i64 %indvars.iv.next45, 256
  br i1 %exitcond47.not, label %.split41.us, label %.split.us, !llvm.loop !37

.split41.us:                                      ; preds = %44, %32
  %33 = tail call i64 @fwrite(ptr nonnull @.str.10, i64 10, i64 1, ptr %1)
  %34 = tail call i64 @fwrite(ptr nonnull @.str.11, i64 2, i64 1, ptr %1)
  %35 = tail call i64 @fwrite(ptr nonnull @.str.12, i64 3, i64 1, ptr %1)
  ret void

.split:                                           ; preds = %3, %44
  %indvars.iv = phi i64 [ %indvars.iv.next, %44 ], [ 0, %3 ]
  %36 = getelementptr inbounds nuw [256 x i64], ptr %25, i64 0, i64 %indvars.iv
  %37 = load i64, ptr %36, align 8, !tbaa !36
  %.not = icmp eq i64 %37, 0
  br i1 %.not, label %44, label %38

38:                                               ; preds = %.split
  %39 = trunc nuw nsw i64 %indvars.iv to i32
  %40 = trunc i64 %indvars.iv to i8
  %41 = tail call noundef ptr %2(ptr noundef %0, i8 noundef zeroext %40)
  %42 = trunc i64 %37 to i32
  %43 = tail call i32 (ptr, ptr, ...) @fprintf(ptr noundef %1, ptr noundef nonnull @.str.8, i32 noundef %39, ptr noundef %41, i32 noundef %42) #8
  br label %44

44:                                               ; preds = %38, %.split
  %indvars.iv.next = add nuw nsw i64 %indvars.iv, 1
  %exitcond.not = icmp eq i64 %indvars.iv.next, 256
  br i1 %exitcond.not, label %.split41.us, label %.split, !llvm.loop !37
}